; Function Attrs: mustprogress uwtable
define noundef ptr @_ZN6icu_7513TimeZoneNames18createTZDBInstanceERKNS_6LocaleER10UErrorCode(ptr noundef nonnull align 8 dereferenceable(217) %locale, ptr nocapture noundef nonnull align 4 dereferenceable(4) %status) local_unnamed_addr #1 align 2 personality ptr @__gxx_personality_v0 {
entry:
  %0 = load i32, ptr %status, align 4
  %cmp.i = icmp sgt i32 %0, 0
  br i1 %cmp.i, label %if.end5, label %if.then

if.then:                                          ; preds = %entry
  %call1 = tail call noundef ptr @_ZN6icu_757UMemorynwEm(i64 noundef 240) #17
  %new.isnull = icmp eq ptr %call1, null
  br i1 %new.isnull, label %land.lhs.true, label %new.notnull

new.notnull:                                      ; preds = %if.then
  invoke void @_ZN6icu_7517TZDBTimeZoneNamesC1ERKNS_6LocaleE(ptr noundef nonnull align 8 dereferenceable(236) %call1, ptr noundef nonnull align 8 dereferenceable(217) %locale)
          to label %if.end5 unwind label %lpad

land.lhs.true:                                    ; preds = %if.then
  %1 = load i32, ptr %status, align 4
  %cmp.i4 = icmp sgt i32 %1, 0
  br i1 %cmp.i4, label %if.end5, label %if.then4

if.then4:                                         ; preds = %land.lhs.true
  store i32 7, ptr %status, align 4
  br label %if.end5

lpad:                                             ; preds = %new.notnull
  %2 = landingpad { ptr, i32 }
          cleanup
  tail call void @_ZN6icu_757UMemorydlEPv(ptr noundef nonnull %call1) #17
  resume { ptr, i32 } %2

if.end5:                                          ; preds = %new.notnull, %land.lhs.true, %if.then4, %entry
  %instance.0 = phi ptr [ null, %if.then4 ], [ null, %land.lhs.true ], [ null, %entry ], [ %call1, %new.notnull ]
  ret ptr %instance.0
}